; ModuleID = '32/2074.cpp'
source_filename = "32/2074.cpp"
target datalayout = "e-m:e-p270:32:32-p271:32:32-p272:64:64-i64:64-f80:128-n8:16:32:64-S128"
target triple = "x86_64-pc-linux-gnu"

%"class.std::ios_base::Init" = type { i8 }
%"class.std::basic_istream" = type { i32 (...)**, i64, %"class.std::basic_ios" }
%"class.std::basic_ios" = type { %"class.std::ios_base", %"class.std::basic_ostream"*, i8, i8, %"class.std::basic_streambuf"*, %"class.std::ctype"*, %"class.std::num_put"*, %"class.std::num_get"* }
%"class.std::ios_base" = type { i32 (...)**, i64, i64, i32, i32, i32, %"struct.std::ios_base::_Callback_list"*, %"struct.std::ios_base::_Words", [8 x %"struct.std::ios_base::_Words"], i32, %"struct.std::ios_base::_Words"*, %"class.std::locale" }
%"struct.std::ios_base::_Callback_list" = type { %"struct.std::ios_base::_Callback_list"*, void (i32, %"class.std::ios_base"*, i32)*, i32, i32 }
%"struct.std::ios_base::_Words" = type { i8*, i64 }
%"class.std::locale" = type { %"class.std::locale::_Impl"* }
%"class.std::locale::_Impl" = type { i32, %"class.std::locale::facet"**, i64, %"class.std::locale::facet"**, i8** }
%"class.std::locale::facet" = type <{ i32 (...)**, i32, [4 x i8] }>
%"class.std::basic_ostream" = type { i32 (...)**, %"class.std::basic_ios" }
%"class.std::basic_streambuf" = type { i32 (...)**, i8*, i8*, i8*, i8*, i8*, i8*, %"class.std::locale" }
%"class.std::ctype" = type <{ %"class.std::locale::facet.base", [4 x i8], %struct.__locale_struct*, i8, [7 x i8], i32*, i32*, i16*, i8, [256 x i8], [256 x i8], i8, [6 x i8] }>
%"class.std::locale::facet.base" = type <{ i32 (...)**, i32 }>
%struct.__locale_struct = type { [13 x %struct.__locale_data*], i16*, i32*, i32*, [13 x i8*] }
%struct.__locale_data = type opaque
%"class.std::num_put" = type { %"class.std::locale::facet.base", [4 x i8] }
%"class.std::num_get" = type { %"class.std::locale::facet.base", [4 x i8] }

@_ZStL8__ioinit = internal global %"class.std::ios_base::Init" zeroinitializer, align 1
@__dso_handle = external hidden global i8
@_ZSt3cin = external dso_local global %"class.std::basic_istream", align 8
@_ZSt4cout = external dso_local global %"class.std::basic_ostream", align 8
@llvm.global_ctors = appending global [1 x { i32, void ()*, i8* }] [{ i32, void ()*, i8* } { i32 65535, void ()* @_GLOBAL__sub_I_2074.cpp, i8* null }]

; Function Attrs: noinline uwtable
define internal void @__cxx_global_var_init() #0 section ".text.startup" {
  call void @_ZNSt8ios_base4InitC1Ev(%"class.std::ios_base::Init"* @_ZStL8__ioinit)
  %1 = call i32 @__cxa_atexit(void (i8*)* bitcast (void (%"class.std::ios_base::Init"*)* @_ZNSt8ios_base4InitD1Ev to void (i8*)*), i8* getelementptr inbounds (%"class.std::ios_base::Init", %"class.std::ios_base::Init"* @_ZStL8__ioinit, i32 0, i32 0), i8* @__dso_handle) #3
  ret void
}

declare dso_local void @_ZNSt8ios_base4InitC1Ev(%"class.std::ios_base::Init"*) unnamed_addr #1

; Function Attrs: nounwind
declare dso_local void @_ZNSt8ios_base4InitD1Ev(%"class.std::ios_base::Init"*) unnamed_addr #2

; Function Attrs: nounwind
declare dso_local i32 @__cxa_atexit(void (i8*)*, i8*, i8*) #3

; Function Attrs: noinline norecurse uwtable
define dso_local i32 @main() #4 {
  %1 = alloca i32, align 4
  %2 = alloca [100 x i8], align 16
  %3 = alloca [100 x i8], align 16
  %4 = alloca i32, align 4
  %5 = alloca i32, align 4
  %6 = alloca i32, align 4
  store i32 0, i32* %1, align 4
  %7 = call dereferenceable(280) %"class.std::basic_istream"* @_ZNSirsERi(%"class.std::basic_istream"* @_ZSt3cin, i32* dereferenceable(4) %6)
  br label %8

8:                                                ; preds = %134, %0
  %9 = load i32, i32* %6, align 4
  %10 = icmp ne i32 %9, 0
  br i1 %10, label %11, label %137

11:                                               ; preds = %8
  %12 = getelementptr inbounds [100 x i8], [100 x i8]* %2, i64 0, i64 0
  %13 = call dereferenceable(280) %"class.std::basic_istream"* @_ZStrsIcSt11char_traitsIcEERSt13basic_istreamIT_T0_ES6_PS3_(%"class.std::basic_istream"* dereferenceable(280) @_ZSt3cin, i8* %12)
  %14 = getelementptr inbounds [100 x i8], [100 x i8]* %3, i64 0, i64 0
  %15 = call dereferenceable(280) %"class.std::basic_istream"* @_ZStrsIcSt11char_traitsIcEERSt13basic_istreamIT_T0_ES6_PS3_(%"class.std::basic_istream"* dereferenceable(280) %13, i8* %14)
  %16 = getelementptr inbounds [100 x i8], [100 x i8]* %3, i64 0, i64 0
  %17 = call i64 @strlen(i8* %16) #6
  %18 = sub i64 %17, 1
  %19 = trunc i64 %18 to i32
  store i32 %19, i32* %4, align 4
  %20 = getelementptr inbounds [100 x i8], [100 x i8]* %2, i64 0, i64 0
  %21 = call i64 @strlen(i8* %20) #6
  %22 = sub i64 %21, 1
  %23 = trunc i64 %22 to i32
  store i32 %23, i32* %5, align 4
  br label %24

24:                                               ; preds = %84, %11
  %25 = load i32, i32* %4, align 4
  %26 = icmp sge i32 %25, 0
  br i1 %26, label %27, label %89

27:                                               ; preds = %24
  %28 = load i32, i32* %5, align 4
  %29 = sext i32 %28 to i64
  %30 = getelementptr inbounds [100 x i8], [100 x i8]* %2, i64 0, i64 %29
  %31 = load i8, i8* %30, align 1
  %32 = sext i8 %31 to i32
  %33 = load i32, i32* %4, align 4
  %34 = sext i32 %33 to i64
  %35 = getelementptr inbounds [100 x i8], [100 x i8]* %3, i64 0, i64 %34
  %36 = load i8, i8* %35, align 1
  %37 = sext i8 %36 to i32
  %38 = sub nsw i32 %32, %37
  %39 = icmp slt i32 %38, 0
  br i1 %39, label %40, label %66

40:                                               ; preds = %27
  %41 = load i32, i32* %5, align 4
  %42 = sext i32 %41 to i64
  %43 = getelementptr inbounds [100 x i8], [100 x i8]* %2, i64 0, i64 %42
  %44 = load i8, i8* %43, align 1
  %45 = sext i8 %44 to i32
  %46 = add nsw i32 10, %45
  %47 = load i32, i32* %4, align 4
  %48 = sext i32 %47 to i64
  %49 = getelementptr inbounds [100 x i8], [100 x i8]* %3, i64 0, i64 %48
  %50 = load i8, i8* %49, align 1
  %51 = sext i8 %50 to i32
  %52 = sub nsw i32 %46, %51
  %53 = add nsw i32 %52, 48
  %54 = trunc i32 %53 to i8
  %55 = load i32, i32* %5, align 4
  %56 = sext i32 %55 to i64
  %57 = getelementptr inbounds [100 x i8], [100 x i8]* %2, i64 0, i64 %56
  store i8 %54, i8* %57, align 1
  %58 = load i32, i32* %5, align 4
  %59 = sub nsw i32 %58, 1
  %60 = sext i32 %59 to i64
  %61 = getelementptr inbounds [100 x i8], [100 x i8]* %2, i64 0, i64 %60
  %62 = load i8, i8* %61, align 1
  %63 = sext i8 %62 to i32
  %64 = sub nsw i32 %63, 1
  %65 = trunc i32 %64 to i8
  store i8 %65, i8* %61, align 1
  br label %83

66:                                               ; preds = %27
  %67 = load i32, i32* %5, align 4
  %68 = sext i32 %67 to i64
  %69 = getelementptr inbounds [100 x i8], [100 x i8]* %2, i64 0, i64 %68
  %70 = load i8, i8* %69, align 1
  %71 = sext i8 %70 to i32
  %72 = load i32, i32* %4, align 4
  %73 = sext i32 %72 to i64
  %74 = getelementptr inbounds [100 x i8], [100 x i8]* %3, i64 0, i64 %73
  %75 = load i8, i8* %74, align 1
  %76 = sext i8 %75 to i32
  %77 = sub nsw i32 %71, %76
  %78 = add nsw i32 %77, 48
  %79 = trunc i32 %78 to i8
  %80 = load i32, i32* %5, align 4
  %81 = sext i32 %80 to i64
  %82 = getelementptr inbounds [100 x i8], [100 x i8]* %2, i64 0, i64 %81
  store i8 %79, i8* %82, align 1
  br label %83

83:                                               ; preds = %66, %40
  br label %84

84:                                               ; preds = %83
  %85 = load i32, i32* %4, align 4
  %86 = add nsw i32 %85, -1
  store i32 %86, i32* %4, align 4
  %87 = load i32, i32* %5, align 4
  %88 = add nsw i32 %87, -1
  store i32 %88, i32* %5, align 4
  br label %24

89:                                               ; preds = %24
  store i32 0, i32* %4, align 4
  br label %90

90:                                               ; preds = %131, %89
  %91 = load i32, i32* %4, align 4
  %92 = sext i32 %91 to i64
  %93 = getelementptr inbounds [100 x i8], [100 x i8]* %2, i64 0, i64 0
  %94 = call i64 @strlen(i8* %93) #6
  %95 = sub i64 %94, 1
  %96 = icmp ule i64 %92, %95
  br i1 %96, label %97, label %134

97:                                               ; preds = %90
  %98 = load i32, i32* %4, align 4
  %99 = sext i32 %98 to i64
  %100 = getelementptr inbounds [100 x i8], [100 x i8]* %2, i64 0, i64 %99
  %101 = load i8, i8* %100, align 1
  %102 = sext i8 %101 to i32
  %103 = icmp ne i32 %102, 48
  br i1 %103, label %104, label %130

104:                                              ; preds = %97
  %105 = load i32, i32* %4, align 4
  store i32 %105, i32* %5, align 4
  br label %106

106:                                              ; preds = %119, %104
  %107 = load i32, i32* %5, align 4
  %108 = sext i32 %107 to i64
  %109 = getelementptr inbounds [100 x i8], [100 x i8]* %2, i64 0, i64 0
  %110 = call i64 @strlen(i8* %109) #6
  %111 = sub i64 %110, 2
  %112 = icmp ule i64 %108, %111
  br i1 %112, label %113, label %122

113:                                              ; preds = %106
  %114 = load i32, i32* %5, align 4
  %115 = sext i32 %114 to i64
  %116 = getelementptr inbounds [100 x i8], [100 x i8]* %2, i64 0, i64 %115
  %117 = load i8, i8* %116, align 1
  %118 = call dereferenceable(272) %"class.std::basic_ostream"* @_ZStlsISt11char_traitsIcEERSt13basic_ostreamIcT_ES5_c(%"class.std::basic_ostream"* dereferenceable(272) @_ZSt4cout, i8 signext %117)
  br label %119

119:                                              ; preds = %113
  %120 = load i32, i32* %5, align 4
  %121 = add nsw i32 %120, 1
  store i32 %121, i32* %5, align 4
  br label %106

122:                                              ; preds = %106
  %123 = getelementptr inbounds [100 x i8], [100 x i8]* %2, i64 0, i64 0
  %124 = call i64 @strlen(i8* %123) #6
  %125 = sub i64 %124, 1
  %126 = getelementptr inbounds [100 x i8], [100 x i8]* %2, i64 0, i64 %125
  %127 = load i8, i8* %126, align 1
  %128 = call dereferenceable(272) %"class.std::basic_ostream"* @_ZStlsISt11char_traitsIcEERSt13basic_ostreamIcT_ES5_c(%"class.std::basic_ostream"* dereferenceable(272) @_ZSt4cout, i8 signext %127)
  %129 = call dereferenceable(272) %"class.std::basic_ostream"* @_ZNSolsEPFRSoS_E(%"class.std::basic_ostream"* %128, %"class.std::basic_ostream"* (%"class.std::basic_ostream"*)* @_ZSt4endlIcSt11char_traitsIcEERSt13basic_ostreamIT_T0_ES6_)
  br label %134

130:                                              ; preds = %97
  br label %131

131:                                              ; preds = %130
  %132 = load i32, i32* %4, align 4
  %133 = add nsw i32 %132, 1
  store i32 %133, i32* %4, align 4
  br label %90

134:                                              ; preds = %122, %90
  %135 = load i32, i32* %6, align 4
  %136 = add nsw i32 %135, -1
  store i32 %136, i32* %6, align 4
  br label %8

137:                                              ; preds = %8
  ret i32 0
}

declare dso_local dereferenceable(280) %"class.std::basic_istream"* @_ZNSirsERi(%"class.std::basic_istream"*, i32* dereferenceable(4)) #1

declare dso_local dereferenceable(280) %"class.std::basic_istream"* @_ZStrsIcSt11char_traitsIcEERSt13basic_istreamIT_T0_ES6_PS3_(%"class.std::basic_istream"* dereferenceable(280), i8*) #1

; Function Attrs: nounwind readonly
declare dso_local i64 @strlen(i8*) #5

declare dso_local dereferenceable(272) %"class.std::basic_ostream"* @_ZStlsISt11char_traitsIcEERSt13basic_ostreamIcT_ES5_c(%"class.std::basic_ostream"* dereferenceable(272), i8 signext) #1

declare dso_local dereferenceable(272) %"class.std::basic_ostream"* @_ZNSolsEPFRSoS_E(%"class.std::basic_ostream"*, %"class.std::basic_ostream"* (%"class.std::basic_ostream"*)*) #1

declare dso_local dereferenceable(272) %"class.std::basic_ostream"* @_ZSt4endlIcSt11char_traitsIcEERSt13basic_ostreamIT_T0_ES6_(%"class.std::basic_ostream"* dereferenceable(272)) #1

; Function Attrs: noinline uwtable
define internal void @_GLOBAL__sub_I_2074.cpp() #0 section ".text.startup" {
  call void @__cxx_global_var_init()
  ret void
}


!llvm.module.flags = !{!0}
!llvm.ident = !{!1}

!0 = !{i32 1, !"wchar_size", i32 4}
!1 = !{!"clang version 10.0.0-4ubuntu1 "}
